(dp1
S'A_vocab_size'
p2
I9
sS'Q_vocab'
p3
(dp4
V\u8c01
I6
sV\u4f60
I4
sS'__UNK__'
p5
I3
sS'__GO__'
p6
I1
sS'__EOS__'
p7
I2
sV\u5929\u6c14
p8
I7
sV\u662f
I5
sS'__PAD__'
p9
I0
sV\u600e\u4e48\u6837
p10
I8
ssS'A_vec'
p11
(lp12
(lp13
I1
aI4
aI5
aI6
aI7
aI2
aa(lp14
I1
aI8
aI9
aI8
aI2
aa(lp15
I1
aI8
aI9
aI8
aI2
aasS'Q_vocab_size'
p16
I8
sS'A_vocab'
p17
(dp18
V__
p19
I8
sV\u4f60
I5
sg5
I3
sg6
I1
sV\u4ec0\u4e48
p20
I6
sg7
I2
sg9
I0
sV\u5173
I4
sVWeather
p21
I9
sV\u4e8b
I7
ssS'Q_vec'
p22
(lp23
(lp24
I1
aI4
aI5
aI6
aa(lp25
I1
aI7
aI8
aa(lp26
I1
aI7
aas.