(dp1
S'A_vocab_size'
p2
I8
sS'Q_vocab'
p3
(dp4
V\u8c01
I6
sV\u4f60
I4
sS'__UNK__'
p5
I3
sS'__GO__'
p6
I1
sS'__EOS__'
p7
I2
sV\u5929\u6c14
p8
I7
sV\u662f
I5
sS'__PAD__'
p9
I0
sV\u600e\u4e48\u6837
p10
I8
ssS'A_vec'
p11
(lp12
(lp13
I4
aI5
aI6
aI7
aI2
aa(lp14
I8
aI2
aa(lp15
I8
aI2
aasS'Q_vocab_size'
p16
I8
sS'A_vocab'
p17
(dp18
V\u4f60
I5
sg5
I3
sg6
I1
sV\u4ec0\u4e48
p19
I6
sV__Weather__
p20
I8
sg7
I2
sg9
I0
sV\u5173
I4
sV\u4e8b
I7
ssS'Q_vec'
p21
(lp22
(lp23
I4
aI5
aI6
aa(lp24
I7
aI8
aa(lp25
I7
aas.